(lp0
(S'cppflags'
p1
ccopy_reg
_reconstructor
p2
(cino.utils
SpaceList
p3
c__builtin__
list
p4
(lp5
S'-mmcu=atmega328p'
p6
aS'-DF_CPU=16000000L'
p7
aS'-DARDUINO=106'
p8
aS'-I/Applications/Arduino.app/Contents/Resources/Java/hardware/arduino/cores/arduino'
p9
aS'-ffunction-sections'
p10
aS'-fdata-sections'
p11
aS'-g'
p12
aS'-Os'
p13
aS'-w'
p14
aS'-I/Applications/Arduino.app/Contents/Resources/Java/hardware/arduino/variants/standard'
p15
aS'-I/Applications/Arduino.app/Contents/Resources/Java/hardware/arduino/cores/arduino'
p16
aS'-I/Applications/Arduino.app/Contents/Resources/Java/hardware/arduino/cores/arduino/avr-libc'
p17
aS'-Ilib/mavlink'
p18
aS'-Ilib/mavlink/include'
p19
aS'-Ilib/mavlink/message_definitions'
p20
aS'-Ilib/mavlink/include/common'
p21
aS'-Ilib/mavlink/include/pixhawk'
p22
aS'-Ilib/mavlink/include/slugs'
p23
aS'-Ilib/mavlink/include/ualberta'
p24
atp25
Rp26
tp27
a(S'version.txt'
p28
S'/Applications/Arduino.app/Contents/Resources/Java/lib/version.txt'
p29
tp30
a(S'used_libs'
p31
(lp32
S'/Applications/Arduino.app/Contents/Resources/Java/hardware/arduino/cores/arduino'
p33
aS'lib/mavlink'
p34
atp35
a(S'cc'
p36
S'/Applications/Arduino.app/Contents/Resources/Java/hardware/tools/avr/bin/avr-gcc'
p37
tp38
a(S'make'
p39
S'/Applications/Arduino.app/Contents/Resources/Java/hardware/tools/avr/bin/make'
p40
tp41
a(S'build_dir'
p42
S'.build/uno'
p43
tp44
a(S'arduino_core_dir'
p45
g33
tp46
a(S'boards.txt'
p47
S'/Applications/Arduino.app/Contents/Resources/Java/hardware/arduino/boards.txt'
p48
tp49
a(S'cxxflags'
p50
g2
(g3
g4
(lp51
S'-fno-exceptions'
p52
atp53
Rp54
tp55
a(S'arduino_variants_dir'
p56
S'/Applications/Arduino.app/Contents/Resources/Java/hardware/arduino/variants'
p57
tp58
a(S'deps'
p59
g2
(g3
g4
(lp60
S'.build/uno/src/dependencies.d'
p61
aS'.build/uno/arduino/dependencies.d'
p62
aS'.build/uno/mavlink/dependencies.d'
p63
atp64
Rp65
tp66
a(S'ar'
p67
S'/Applications/Arduino.app/Contents/Resources/Java/hardware/tools/avr/bin/avr-ar'
p68
tp69
a(S'names'
p70
(dp71
S'cpp'
p72
S'%s.cpp'
p73
sS'obj'
p74
S'%s.o'
p75
sg59
S'%s.d'
p76
sS'lib'
p77
S'lib%s.a'
p78
stp79
a(S'cflags'
p80
g2
(g3
g4
(lp81
tp82
Rp83
tp84
a(S'ldflags'
p85
g2
(g3
g4
(lp86
g6
aS'-Wl,-Os'
p87
aS'-Wl,--gc-sections'
p88
atp89
Rp90
tp91
a(S'arduino_libraries_dir'
p92
S'/Applications/Arduino.app/Contents/Resources/Java/libraries'
p93
tp94
a(S'arduino_lib_version'
p95
g2
(cino.environment
Version
p96
c__builtin__
tuple
p97
(I1
I0
I6
tp98
tp99
Rp100
tp101
a(S'objcopy'
p102
S'/Applications/Arduino.app/Contents/Resources/Java/hardware/tools/avr/bin/avr-objcopy'
p103
tp104
a(S'board_models'
p105
cino.environment
BoardModels
p106
((lp107
(lp108
S'uno'
p109
a(dp110
S'build'
p111
(dp112
S'core'
p113
S'arduino'
p114
sS'mcu'
p115
S'atmega328p'
p116
sS'f_cpu'
p117
S'16000000L'
p118
sS'variant'
p119
S'standard'
p120
ssS'bootloader'
p121
(dp122
S'extended_fuses'
p123
S'0x05'
p124
sS'high_fuses'
p125
S'0xde'
p126
sS'low_fuses'
p127
S'0xff'
p128
sS'lock_bits'
p129
S'0x0F'
p130
sS'file'
p131
S'optiboot_atmega328.hex'
p132
sS'path'
p133
S'optiboot'
p134
sS'unlock_bits'
p135
S'0x3F'
p136
ssS'name'
p137
S'Arduino Uno'
p138
sS'upload'
p139
(dp140
S'speed'
p141
S'115200'
p142
sS'maximum_size'
p143
S'32256'
p144
sS'protocol'
p145
S'arduino'
p146
ssaa(lp147
S'atmega328'
p148
a(dp149
S'build'
p150
(dp151
S'core'
p152
S'arduino'
p153
sS'mcu'
p154
S'atmega328p'
p155
sS'f_cpu'
p156
S'16000000L'
p157
sS'variant'
p158
S'standard'
p159
ssS'bootloader'
p160
(dp161
S'extended_fuses'
p162
S'0x05'
p163
sS'high_fuses'
p164
S'0xDA'
p165
sS'low_fuses'
p166
S'0xFF'
p167
sS'lock_bits'
p168
S'0x0F'
p169
sS'file'
p170
S'ATmegaBOOT_168_atmega328.hex'
p171
sS'path'
p172
S'atmega'
p173
sS'unlock_bits'
p174
S'0x3F'
p175
ssS'name'
p176
S'Arduino Duemilanove w/ ATmega328'
p177
sS'upload'
p178
(dp179
S'speed'
p180
S'57600'
p181
sS'maximum_size'
p182
S'30720'
p183
sS'protocol'
p184
S'arduino'
p185
ssaa(lp186
S'diecimila'
p187
a(dp188
S'build'
p189
(dp190
S'core'
p191
S'arduino'
p192
sS'mcu'
p193
S'atmega168'
p194
sS'f_cpu'
p195
S'16000000L'
p196
sS'variant'
p197
S'standard'
p198
ssS'bootloader'
p199
(dp200
S'extended_fuses'
p201
S'0x00'
p202
sS'high_fuses'
p203
S'0xdd'
p204
sS'low_fuses'
p205
S'0xff'
p206
sS'lock_bits'
p207
S'0x0F'
p208
sS'file'
p209
S'ATmegaBOOT_168_diecimila.hex'
p210
sS'path'
p211
S'atmega'
p212
sS'unlock_bits'
p213
S'0x3F'
p214
ssS'name'
p215
S'Arduino Diecimila or Duemilanove w/ ATmega168'
p216
sS'upload'
p217
(dp218
S'speed'
p219
S'19200'
p220
sS'maximum_size'
p221
S'14336'
p222
sS'protocol'
p223
S'arduino'
p224
ssaa(lp225
S'nano328'
p226
a(dp227
S'build'
p228
(dp229
S'core'
p230
S'arduino'
p231
sS'mcu'
p232
S'atmega328p'
p233
sS'f_cpu'
p234
S'16000000L'
p235
sS'variant'
p236
S'eightanaloginputs'
p237
ssS'bootloader'
p238
(dp239
S'extended_fuses'
p240
S'0x05'
p241
sS'high_fuses'
p242
S'0xDA'
p243
sS'low_fuses'
p244
S'0xFF'
p245
sS'lock_bits'
p246
S'0x0F'
p247
sS'file'
p248
S'ATmegaBOOT_168_atmega328.hex'
p249
sS'path'
p250
S'atmega'
p251
sS'unlock_bits'
p252
S'0x3F'
p253
ssS'name'
p254
S'Arduino Nano w/ ATmega328'
p255
sS'upload'
p256
(dp257
S'speed'
p258
S'57600'
p259
sS'maximum_size'
p260
S'30720'
p261
sS'protocol'
p262
S'arduino'
p263
ssaa(lp264
S'nano'
p265
a(dp266
S'build'
p267
(dp268
S'core'
p269
S'arduino'
p270
sS'mcu'
p271
S'atmega168'
p272
sS'f_cpu'
p273
S'16000000L'
p274
sS'variant'
p275
S'eightanaloginputs'
p276
ssS'bootloader'
p277
(dp278
S'extended_fuses'
p279
S'0x00'
p280
sS'high_fuses'
p281
S'0xdd'
p282
sS'low_fuses'
p283
S'0xff'
p284
sS'lock_bits'
p285
S'0x0F'
p286
sS'file'
p287
S'ATmegaBOOT_168_diecimila.hex'
p288
sS'path'
p289
S'atmega'
p290
sS'unlock_bits'
p291
S'0x3F'
p292
ssS'name'
p293
S'Arduino Nano w/ ATmega168'
p294
sS'upload'
p295
(dp296
S'speed'
p297
S'19200'
p298
sS'maximum_size'
p299
S'14336'
p300
sS'protocol'
p301
S'arduino'
p302
ssaa(lp303
S'mega2560'
p304
a(dp305
S'build'
p306
(dp307
S'core'
p308
S'arduino'
p309
sS'mcu'
p310
S'atmega2560'
p311
sS'f_cpu'
p312
S'16000000L'
p313
sS'variant'
p314
S'mega'
p315
ssS'bootloader'
p316
(dp317
S'extended_fuses'
p318
S'0xFD'
p319
sS'high_fuses'
p320
S'0xD8'
p321
sS'low_fuses'
p322
S'0xFF'
p323
sS'lock_bits'
p324
S'0x0F'
p325
sS'file'
p326
S'stk500boot_v2_mega2560.hex'
p327
sS'path'
p328
S'stk500v2'
p329
sS'unlock_bits'
p330
S'0x3F'
p331
ssS'name'
p332
S'Arduino Mega 2560 or Mega ADK'
p333
sS'upload'
p334
(dp335
S'speed'
p336
S'115200'
p337
sS'maximum_size'
p338
S'258048'
p339
sS'protocol'
p340
S'wiring'
p341
ssaa(lp342
S'mega'
p343
a(dp344
S'build'
p345
(dp346
S'core'
p347
S'arduino'
p348
sS'mcu'
p349
S'atmega1280'
p350
sS'f_cpu'
p351
S'16000000L'
p352
sS'variant'
p353
S'mega'
p354
ssS'bootloader'
p355
(dp356
S'extended_fuses'
p357
S'0xF5'
p358
sS'high_fuses'
p359
S'0xDA'
p360
sS'low_fuses'
p361
S'0xFF'
p362
sS'lock_bits'
p363
S'0x0F'
p364
sS'file'
p365
S'ATmegaBOOT_168_atmega1280.hex'
p366
sS'path'
p367
S'atmega'
p368
sS'unlock_bits'
p369
S'0x3F'
p370
ssS'name'
p371
S'Arduino Mega (ATmega1280)'
p372
sS'upload'
p373
(dp374
S'speed'
p375
S'57600'
p376
sS'maximum_size'
p377
S'126976'
p378
sS'protocol'
p379
S'arduino'
p380
ssaa(lp381
S'leonardo'
p382
a(dp383
S'build'
p384
(dp385
S'core'
p386
S'arduino'
p387
sS'f_cpu'
p388
S'16000000L'
p389
sS'vid'
p390
S'0x2341'
p391
sS'pid'
p392
S'0x8036'
p393
sS'variant'
p394
S'leonardo'
p395
sS'mcu'
p396
S'atmega32u4'
p397
ssS'bootloader'
p398
(dp399
S'extended_fuses'
p400
S'0xcb'
p401
sS'high_fuses'
p402
S'0xd8'
p403
sS'low_fuses'
p404
S'0xff'
p405
sS'lock_bits'
p406
S'0x2F'
p407
sS'file'
p408
S'Caterina-Leonardo.hex'
p409
sS'path'
p410
S'caterina'
p411
sS'unlock_bits'
p412
S'0x3F'
p413
ssS'name'
p414
S'Arduino Leonardo'
p415
sS'upload'
p416
(dp417
S'speed'
p418
S'57600'
p419
sS'maximum_size'
p420
S'28672'
p421
sS'protocol'
p422
S'avr109'
p423
sS'disable_flushing'
p424
S'true'
p425
ssaa(lp426
S'esplora'
p427
a(dp428
S'build'
p429
(dp430
S'core'
p431
S'arduino'
p432
sS'f_cpu'
p433
S'16000000L'
p434
sS'vid'
p435
S'0x2341'
p436
sS'pid'
p437
S'0x803C'
p438
sS'variant'
p439
S'leonardo'
p440
sS'mcu'
p441
S'atmega32u4'
p442
ssS'bootloader'
p443
(dp444
S'extended_fuses'
p445
S'0xcb'
p446
sS'high_fuses'
p447
S'0xd8'
p448
sS'low_fuses'
p449
S'0xff'
p450
sS'lock_bits'
p451
S'0x2F'
p452
sS'file'
p453
S'Caterina-Esplora.hex'
p454
sS'path'
p455
S'caterina'
p456
sS'unlock_bits'
p457
S'0x3F'
p458
ssS'name'
p459
S'Arduino Esplora'
p460
sS'upload'
p461
(dp462
S'speed'
p463
S'57600'
p464
sS'maximum_size'
p465
S'28672'
p466
sS'protocol'
p467
S'avr109'
p468
sS'disable_flushing'
p469
S'true'
p470
ssaa(lp471
S'micro'
p472
a(dp473
S'build'
p474
(dp475
S'core'
p476
S'arduino'
p477
sS'f_cpu'
p478
S'16000000L'
p479
sS'vid'
p480
S'0x2341'
p481
sS'pid'
p482
S'0x8037'
p483
sS'variant'
p484
S'micro'
p485
sS'mcu'
p486
S'atmega32u4'
p487
ssS'bootloader'
p488
(dp489
S'extended_fuses'
p490
S'0xcb'
p491
sS'high_fuses'
p492
S'0xd8'
p493
sS'low_fuses'
p494
S'0xff'
p495
sS'lock_bits'
p496
S'0x2F'
p497
sS'file'
p498
S'Caterina-Micro.hex'
p499
sS'path'
p500
S'caterina'
p501
sS'unlock_bits'
p502
S'0x3F'
p503
ssS'name'
p504
S'Arduino Micro'
p505
sS'upload'
p506
(dp507
S'speed'
p508
S'57600'
p509
sS'maximum_size'
p510
S'28672'
p511
sS'protocol'
p512
S'avr109'
p513
sS'disable_flushing'
p514
S'true'
p515
ssaa(lp516
S'mini328'
p517
a(dp518
S'build'
p519
(dp520
S'core'
p521
S'arduino'
p522
sS'mcu'
p523
S'atmega328p'
p524
sS'f_cpu'
p525
S'16000000L'
p526
sS'variant'
p527
S'eightanaloginputs'
p528
ssS'bootloader'
p529
(dp530
S'extended_fuses'
p531
S'0x05'
p532
sS'high_fuses'
p533
S'0xd8'
p534
sS'low_fuses'
p535
S'0xff'
p536
sS'lock_bits'
p537
S'0x0F'
p538
sS'file'
p539
S'optiboot_atmega328-Mini.hex'
p540
sS'path'
p541
S'optiboot'
p542
sS'unlock_bits'
p543
S'0x3F'
p544
ssS'name'
p545
S'Arduino Mini w/ ATmega328'
p546
sS'upload'
p547
(dp548
S'speed'
p549
S'115200'
p550
sS'maximum_size'
p551
S'28672'
p552
sS'protocol'
p553
S'arduino'
p554
ssaa(lp555
S'mini'
p556
a(dp557
S'build'
p558
(dp559
S'core'
p560
S'arduino'
p561
sS'mcu'
p562
S'atmega168'
p563
sS'f_cpu'
p564
S'16000000L'
p565
sS'variant'
p566
S'eightanaloginputs'
p567
ssS'bootloader'
p568
(dp569
S'extended_fuses'
p570
S'0x00'
p571
sS'high_fuses'
p572
S'0xdd'
p573
sS'low_fuses'
p574
S'0xff'
p575
sS'lock_bits'
p576
S'0x0F'
p577
sS'file'
p578
S'ATmegaBOOT_168_ng.hex'
p579
sS'path'
p580
S'atmega'
p581
sS'unlock_bits'
p582
S'0x3F'
p583
ssS'name'
p584
S'Arduino Mini w/ ATmega168'
p585
sS'upload'
p586
(dp587
S'speed'
p588
S'19200'
p589
sS'maximum_size'
p590
S'14336'
p591
sS'protocol'
p592
S'arduino'
p593
ssaa(lp594
S'ethernet'
p595
a(dp596
S'build'
p597
(dp598
S'f_cpu'
p599
S'16000000L'
p600
sS'mcu'
p601
S'atmega328p'
p602
sS'variant'
p603
S'ethernet'
p604
sS'core'
p605
S'arduino'
p606
ssS'bootloader'
p607
(dp608
S'extended_fuses'
p609
S'0x05'
p610
sS'high_fuses'
p611
S'0xde'
p612
sS'low_fuses'
p613
S'0xff'
p614
sS'lock_bits'
p615
S'0x0F'
p616
sS'file'
p617
S'optiboot_atmega328.hex'
p618
sS'path'
p619
S'optiboot'
p620
sS'unlock_bits'
p621
S'0x3F'
p622
ssS'name'
p623
S'Arduino Ethernet'
p624
sS'upload'
p625
(dp626
S'speed'
p627
S'115200'
p628
sS'maximum_size'
p629
S'32256'
p630
sS'protocol'
p631
S'arduino'
p632
ssaa(lp633
S'fio'
p634
a(dp635
S'build'
p636
(dp637
S'core'
p638
S'arduino'
p639
sS'mcu'
p640
S'atmega328p'
p641
sS'f_cpu'
p642
S'8000000L'
p643
sS'variant'
p644
S'eightanaloginputs'
p645
ssS'bootloader'
p646
(dp647
S'extended_fuses'
p648
S'0x05'
p649
sS'high_fuses'
p650
S'0xDA'
p651
sS'low_fuses'
p652
S'0xFF'
p653
sS'lock_bits'
p654
S'0x0F'
p655
sS'file'
p656
S'ATmegaBOOT_168_atmega328_pro_8MHz.hex'
p657
sS'path'
p658
S'arduino:atmega'
p659
sS'unlock_bits'
p660
S'0x3F'
p661
ssS'name'
p662
S'Arduino Fio'
p663
sS'upload'
p664
(dp665
S'speed'
p666
S'57600'
p667
sS'maximum_size'
p668
S'30720'
p669
sS'protocol'
p670
S'arduino'
p671
ssaa(lp672
S'bt328'
p673
a(dp674
S'build'
p675
(dp676
S'core'
p677
S'arduino'
p678
sS'mcu'
p679
S'atmega328p'
p680
sS'f_cpu'
p681
S'16000000L'
p682
sS'variant'
p683
S'eightanaloginputs'
p684
ssS'bootloader'
p685
(dp686
S'extended_fuses'
p687
S'0x05'
p688
sS'high_fuses'
p689
S'0xd8'
p690
sS'low_fuses'
p691
S'0xff'
p692
sS'lock_bits'
p693
S'0x0F'
p694
sS'file'
p695
S'ATmegaBOOT_168_atmega328_bt.hex'
p696
sS'path'
p697
S'bt'
p698
sS'unlock_bits'
p699
S'0x3F'
p700
ssS'name'
p701
S'Arduino BT w/ ATmega328'
p702
sS'upload'
p703
(dp704
S'speed'
p705
S'19200'
p706
sS'maximum_size'
p707
S'28672'
p708
sS'protocol'
p709
S'arduino'
p710
sS'disable_flushing'
p711
S'true'
p712
ssaa(lp713
S'bt'
p714
a(dp715
S'build'
p716
(dp717
S'core'
p718
S'arduino'
p719
sS'mcu'
p720
S'atmega168'
p721
sS'f_cpu'
p722
S'16000000L'
p723
sS'variant'
p724
S'eightanaloginputs'
p725
ssS'bootloader'
p726
(dp727
S'extended_fuses'
p728
S'0x00'
p729
sS'high_fuses'
p730
S'0xdd'
p731
sS'low_fuses'
p732
S'0xff'
p733
sS'lock_bits'
p734
S'0x0F'
p735
sS'file'
p736
S'ATmegaBOOT_168.hex'
p737
sS'path'
p738
S'bt'
p739
sS'unlock_bits'
p740
S'0x3F'
p741
ssS'name'
p742
S'Arduino BT w/ ATmega168'
p743
sS'upload'
p744
(dp745
S'speed'
p746
S'19200'
p747
sS'maximum_size'
p748
S'14336'
p749
sS'protocol'
p750
S'arduino'
p751
sS'disable_flushing'
p752
S'true'
p753
ssaa(lp754
S'LilyPadUSB'
p755
a(dp756
S'build'
p757
(dp758
S'core'
p759
S'arduino'
p760
sS'f_cpu'
p761
S'8000000L'
p762
sS'vid'
p763
S'0x1B4F'
p764
sS'pid'
p765
S'0x9208'
p766
sS'variant'
p767
S'leonardo'
p768
sS'mcu'
p769
S'atmega32u4'
p770
ssS'bootloader'
p771
(dp772
S'extended_fuses'
p773
S'0xce'
p774
sS'high_fuses'
p775
S'0xd8'
p776
sS'low_fuses'
p777
S'0xff'
p778
sS'lock_bits'
p779
S'0x2F'
p780
sS'file'
p781
S'Caterina-LilyPadUSB.hex'
p782
sS'path'
p783
S'caterina-LilyPadUSB'
p784
sS'unlock_bits'
p785
S'0x3F'
p786
ssS'name'
p787
S'LilyPad Arduino USB'
p788
sS'upload'
p789
(dp790
S'speed'
p791
S'57600'
p792
sS'maximum_size'
p793
S'28672'
p794
sS'protocol'
p795
S'avr109'
p796
sS'disable_flushing'
p797
S'true'
p798
ssaa(lp799
S'lilypad328'
p800
a(dp801
S'build'
p802
(dp803
S'core'
p804
S'arduino'
p805
sS'mcu'
p806
S'atmega328p'
p807
sS'f_cpu'
p808
S'8000000L'
p809
sS'variant'
p810
S'standard'
p811
ssS'bootloader'
p812
(dp813
S'extended_fuses'
p814
S'0x05'
p815
sS'high_fuses'
p816
S'0xDA'
p817
sS'low_fuses'
p818
S'0xFF'
p819
sS'lock_bits'
p820
S'0x0F'
p821
sS'file'
p822
S'ATmegaBOOT_168_atmega328_pro_8MHz.hex'
p823
sS'path'
p824
S'atmega'
p825
sS'unlock_bits'
p826
S'0x3F'
p827
ssS'name'
p828
S'LilyPad Arduino w/ ATmega328'
p829
sS'upload'
p830
(dp831
S'speed'
p832
S'57600'
p833
sS'maximum_size'
p834
S'30720'
p835
sS'protocol'
p836
S'arduino'
p837
ssaa(lp838
S'lilypad'
p839
a(dp840
S'build'
p841
(dp842
S'core'
p843
S'arduino'
p844
sS'mcu'
p845
S'atmega168'
p846
sS'f_cpu'
p847
S'8000000L'
p848
sS'variant'
p849
S'standard'
p850
ssS'bootloader'
p851
(dp852
S'extended_fuses'
p853
S'0x00'
p854
sS'high_fuses'
p855
S'0xdd'
p856
sS'low_fuses'
p857
S'0xe2'
p858
sS'lock_bits'
p859
S'0x0F'
p860
sS'file'
p861
S'LilyPadBOOT_168.hex'
p862
sS'path'
p863
S'lilypad'
p864
sS'unlock_bits'
p865
S'0x3F'
p866
ssS'name'
p867
S'LilyPad Arduino w/ ATmega168'
p868
sS'upload'
p869
(dp870
S'speed'
p871
S'19200'
p872
sS'maximum_size'
p873
S'14336'
p874
sS'protocol'
p875
S'arduino'
p876
ssaa(lp877
S'pro5v328'
p878
a(dp879
S'build'
p880
(dp881
S'core'
p882
S'arduino'
p883
sS'mcu'
p884
S'atmega328p'
p885
sS'f_cpu'
p886
S'16000000L'
p887
sS'variant'
p888
S'standard'
p889
ssS'bootloader'
p890
(dp891
S'extended_fuses'
p892
S'0x05'
p893
sS'high_fuses'
p894
S'0xDA'
p895
sS'low_fuses'
p896
S'0xFF'
p897
sS'lock_bits'
p898
S'0x0F'
p899
sS'file'
p900
S'ATmegaBOOT_168_atmega328.hex'
p901
sS'path'
p902
S'atmega'
p903
sS'unlock_bits'
p904
S'0x3F'
p905
ssS'name'
p906
S'Arduino Pro or Pro Mini (5V, 16 MHz) w/ ATmega328'
p907
sS'upload'
p908
(dp909
S'speed'
p910
S'57600'
p911
sS'maximum_size'
p912
S'30720'
p913
sS'protocol'
p914
S'arduino'
p915
ssaa(lp916
S'pro5v'
p917
a(dp918
S'build'
p919
(dp920
S'core'
p921
S'arduino'
p922
sS'mcu'
p923
S'atmega168'
p924
sS'f_cpu'
p925
S'16000000L'
p926
sS'variant'
p927
S'standard'
p928
ssS'bootloader'
p929
(dp930
S'extended_fuses'
p931
S'0x00'
p932
sS'high_fuses'
p933
S'0xdd'
p934
sS'low_fuses'
p935
S'0xff'
p936
sS'lock_bits'
p937
S'0x0F'
p938
sS'file'
p939
S'ATmegaBOOT_168_diecimila.hex'
p940
sS'path'
p941
S'atmega'
p942
sS'unlock_bits'
p943
S'0x3F'
p944
ssS'name'
p945
S'Arduino Pro or Pro Mini (5V, 16 MHz) w/ ATmega168'
p946
sS'upload'
p947
(dp948
S'speed'
p949
S'19200'
p950
sS'maximum_size'
p951
S'14336'
p952
sS'protocol'
p953
S'arduino'
p954
ssaa(lp955
S'pro328'
p956
a(dp957
S'build'
p958
(dp959
S'core'
p960
S'arduino'
p961
sS'mcu'
p962
S'atmega328p'
p963
sS'f_cpu'
p964
S'8000000L'
p965
sS'variant'
p966
S'standard'
p967
ssS'bootloader'
p968
(dp969
S'extended_fuses'
p970
S'0x05'
p971
sS'high_fuses'
p972
S'0xDA'
p973
sS'low_fuses'
p974
S'0xFF'
p975
sS'lock_bits'
p976
S'0x0F'
p977
sS'file'
p978
S'ATmegaBOOT_168_atmega328_pro_8MHz.hex'
p979
sS'path'
p980
S'atmega'
p981
sS'unlock_bits'
p982
S'0x3F'
p983
ssS'name'
p984
S'Arduino Pro or Pro Mini (3.3V, 8 MHz) w/ ATmega328'
p985
sS'upload'
p986
(dp987
S'speed'
p988
S'57600'
p989
sS'maximum_size'
p990
S'30720'
p991
sS'protocol'
p992
S'arduino'
p993
ssaa(lp994
S'pro'
p995
a(dp996
S'build'
p997
(dp998
S'core'
p999
S'arduino'
p1000
sS'mcu'
p1001
S'atmega168'
p1002
sS'f_cpu'
p1003
S'8000000L'
p1004
sS'variant'
p1005
S'standard'
p1006
ssS'bootloader'
p1007
(dp1008
S'extended_fuses'
p1009
S'0x00'
p1010
sS'high_fuses'
p1011
S'0xdd'
p1012
sS'low_fuses'
p1013
S'0xc6'
p1014
sS'lock_bits'
p1015
S'0x0F'
p1016
sS'file'
p1017
S'ATmegaBOOT_168_pro_8MHz.hex'
p1018
sS'path'
p1019
S'atmega'
p1020
sS'unlock_bits'
p1021
S'0x3F'
p1022
ssS'name'
p1023
S'Arduino Pro or Pro Mini (3.3V, 8 MHz) w/ ATmega168'
p1024
sS'upload'
p1025
(dp1026
S'speed'
p1027
S'19200'
p1028
sS'maximum_size'
p1029
S'14336'
p1030
sS'protocol'
p1031
S'arduino'
p1032
ssaa(lp1033
S'atmega168'
p1034
a(dp1035
S'build'
p1036
(dp1037
S'core'
p1038
S'arduino'
p1039
sS'mcu'
p1040
S'atmega168'
p1041
sS'f_cpu'
p1042
S'16000000L'
p1043
sS'variant'
p1044
S'standard'
p1045
ssS'bootloader'
p1046
(dp1047
S'extended_fuses'
p1048
S'0x00'
p1049
sS'high_fuses'
p1050
S'0xdd'
p1051
sS'low_fuses'
p1052
S'0xff'
p1053
sS'lock_bits'
p1054
S'0x0F'
p1055
sS'file'
p1056
S'ATmegaBOOT_168_ng.hex'
p1057
sS'path'
p1058
S'atmega'
p1059
sS'unlock_bits'
p1060
S'0x3F'
p1061
ssS'name'
p1062
S'Arduino NG or older w/ ATmega168'
p1063
sS'upload'
p1064
(dp1065
S'speed'
p1066
S'19200'
p1067
sS'maximum_size'
p1068
S'14336'
p1069
sS'protocol'
p1070
S'arduino'
p1071
ssaa(lp1072
S'atmega8'
p1073
a(dp1074
S'build'
p1075
(dp1076
S'core'
p1077
S'arduino'
p1078
sS'mcu'
p1079
S'atmega8'
p1080
sS'f_cpu'
p1081
S'16000000L'
p1082
sS'variant'
p1083
S'standard'
p1084
ssS'bootloader'
p1085
(dp1086
S'high_fuses'
p1087
S'0xca'
p1088
sS'low_fuses'
p1089
S'0xdf'
p1090
sS'lock_bits'
p1091
S'0x0F'
p1092
sS'file'
p1093
S'ATmegaBOOT-prod-firmware-2009-11-07.hex'
p1094
sS'path'
p1095
S'atmega8'
p1096
sS'unlock_bits'
p1097
S'0x3F'
p1098
ssS'name'
p1099
S'Arduino NG or older w/ ATmega8'
p1100
sS'upload'
p1101
(dp1102
S'speed'
p1103
S'19200'
p1104
sS'maximum_size'
p1105
S'7168'
p1106
sS'protocol'
p1107
S'arduino'
p1108
ssaa(lp1109
S'robotControl'
p1110
a(dp1111
S'build'
p1112
(dp1113
S'core'
p1114
S'robot'
p1115
sS'f_cpu'
p1116
S'16000000L'
p1117
sS'vid'
p1118
S'0x2341'
p1119
sS'pid'
p1120
S'0x8038'
p1121
sS'variant'
p1122
S'robot_control'
p1123
sS'mcu'
p1124
S'atmega32u4'
p1125
ssS'bootloader'
p1126
(dp1127
S'extended_fuses'
p1128
S'0xcb'
p1129
sS'high_fuses'
p1130
S'0xd8'
p1131
sS'low_fuses'
p1132
S'0xff'
p1133
sS'lock_bits'
p1134
S'0x2F'
p1135
sS'file'
p1136
S'Caterina-Robot-Control.hex'
p1137
sS'path'
p1138
S'caterina-Arduino_Robot'
p1139
sS'unlock_bits'
p1140
S'0x3F'
p1141
ssS'name'
p1142
S'Arduino Robot Control'
p1143
sS'upload'
p1144
(dp1145
S'speed'
p1146
S'57600'
p1147
sS'maximum_size'
p1148
S'28672'
p1149
sS'protocol'
p1150
S'avr109'
p1151
sS'disable_flushing'
p1152
S'true'
p1153
ssaa(lp1154
S'robotMotor'
p1155
a(dp1156
S'build'
p1157
(dp1158
S'core'
p1159
S'robot'
p1160
sS'f_cpu'
p1161
S'16000000L'
p1162
sS'vid'
p1163
S'0x2341'
p1164
sS'pid'
p1165
S'0x8039'
p1166
sS'variant'
p1167
S'robot_motor'
p1168
sS'mcu'
p1169
S'atmega32u4'
p1170
ssS'bootloader'
p1171
(dp1172
S'extended_fuses'
p1173
S'0xcb'
p1174
sS'high_fuses'
p1175
S'0xd8'
p1176
sS'low_fuses'
p1177
S'0xff'
p1178
sS'lock_bits'
p1179
S'0x2F'
p1180
sS'file'
p1181
S'Caterina-Robot-Motor.hex'
p1182
sS'path'
p1183
S'caterina-Arduino_Robot'
p1184
sS'unlock_bits'
p1185
S'0x3F'
p1186
ssS'name'
p1187
S'Arduino Robot Motor'
p1188
sS'upload'
p1189
(dp1190
S'speed'
p1191
S'57600'
p1192
sS'maximum_size'
p1193
S'28672'
p1194
sS'protocol'
p1195
S'avr109'
p1196
sS'disable_flushing'
p1197
S'true'
p1198
ssaatp1199
Rp1200
(dp1201
S'default'
p1202
S'uno'
p1203
sbtp1204
a(S'cxx'
p1205
S'/Applications/Arduino.app/Contents/Resources/Java/hardware/tools/avr/bin/avr-g++'
p1206
tp1207
a.