(lp0
(S'cppflags'
p1
ccopy_reg
_reconstructor
p2
(cino.utils
SpaceList
p3
c__builtin__
list
p4
(lp5
S'-mmcu=atmega328p'
p6
aS'-DF_CPU=16000000L'
p7
aS'-DARDUINO=106'
p8
aS'-I/Applications/Arduino.app/Contents/Resources/Java/hardware/arduino/cores/arduino'
p9
aS'-ffunction-sections'
p10
aS'-fdata-sections'
p11
aS'-g'
p12
aS'-Os'
p13
aS'-w'
p14
aS'-I/Applications/Arduino.app/Contents/Resources/Java/hardware/arduino/variants/standard'
p15
aS'-Ilib/GCS_MAVLink'
p16
aS'-Ilib/GCS_MAVLink/include'
p17
aS'-Ilib/GCS_MAVLink/message_definitions'
p18
aS'-Ilib/GCS_MAVLink/message_definitions_v1.0'
p19
aS'-Ilib/GCS_MAVLink/include/mavlink'
p20
aS'-Ilib/GCS_MAVLink/include/mavlink/v0.9'
p21
aS'-Ilib/GCS_MAVLink/include/mavlink/v1.0'
p22
aS'-Ilib/GCS_MAVLink/include/mavlink/v0.9/ardupilotmega'
p23
aS'-Ilib/GCS_MAVLink/include/mavlink/v0.9/common'
p24
aS'-Ilib/GCS_MAVLink/include/mavlink/v1.0/ardupilotmega'
p25
aS'-Ilib/GCS_MAVLink/include/mavlink/v1.0/common'
p26
aS'-Ilib/GCS_MAVLink/include/mavlink/v1.0/matrixpilot'
p27
aS'-Ilib/GCS_MAVLink/include/mavlink/v1.0/sensesoar'
p28
aS'-Ilib/GCS_MAVLink/include/mavlink/v0.9/ardupilotmega'
p29
aS'-Ilib/GCS_MAVLink/include/mavlink/v0.9/common'
p30
aS'-Ilib/GCS_MAVLink/include/mavlink/v1.0/ardupilotmega'
p31
aS'-Ilib/GCS_MAVLink/include/mavlink/v1.0/common'
p32
aS'-Ilib/GCS_MAVLink/include/mavlink/v1.0/matrixpilot'
p33
aS'-Ilib/GCS_MAVLink/include/mavlink/v1.0/sensesoar'
p34
aS'-Ilib/GCS_MAVLink/include/mavlink/v0.9'
p35
aS'-Ilib/GCS_MAVLink/include/mavlink/v1.0'
p36
aS'-Ilib/GCS_MAVLink/include/mavlink/v0.9/ardupilotmega'
p37
aS'-Ilib/GCS_MAVLink/include/mavlink/v0.9/common'
p38
aS'-Ilib/GCS_MAVLink/include/mavlink/v1.0/ardupilotmega'
p39
aS'-Ilib/GCS_MAVLink/include/mavlink/v1.0/common'
p40
aS'-Ilib/GCS_MAVLink/include/mavlink/v1.0/matrixpilot'
p41
aS'-Ilib/GCS_MAVLink/include/mavlink/v1.0/sensesoar'
p42
aS'-Ilib/GCS_MAVLink/include/mavlink/v0.9/ardupilotmega'
p43
aS'-Ilib/GCS_MAVLink/include/mavlink/v0.9/common'
p44
aS'-Ilib/GCS_MAVLink/include/mavlink/v1.0/ardupilotmega'
p45
aS'-Ilib/GCS_MAVLink/include/mavlink/v1.0/common'
p46
aS'-Ilib/GCS_MAVLink/include/mavlink/v1.0/matrixpilot'
p47
aS'-Ilib/GCS_MAVLink/include/mavlink/v1.0/sensesoar'
p48
aS'-Ilib/GCS_MAVLink/include/mavlink/v0.9/ardupilotmega'
p49
aS'-Ilib/GCS_MAVLink/include/mavlink/v0.9/common'
p50
aS'-Ilib/GCS_MAVLink/include/mavlink/v1.0/ardupilotmega'
p51
aS'-Ilib/GCS_MAVLink/include/mavlink/v1.0/common'
p52
aS'-Ilib/GCS_MAVLink/include/mavlink/v1.0/matrixpilot'
p53
aS'-Ilib/GCS_MAVLink/include/mavlink/v1.0/sensesoar'
p54
aS'-Ilib/AP_Math'
p55
aS'-Ilib/FastSerial'
p56
aS'-Ilib/AP_Common'
p57
aS'-Ilib/AP_Common/tools'
p58
aS'-I/Applications/Arduino.app/Contents/Resources/Java/hardware/arduino/cores/arduino'
p59
aS'-I/Applications/Arduino.app/Contents/Resources/Java/hardware/arduino/cores/arduino/avr-libc'
p60
atp61
Rp62
tp63
a(S'cxx'
p64
S'/Applications/Arduino.app/Contents/Resources/Java/hardware/tools/avr/bin/avr-g++'
p65
tp66
a(S'version.txt'
p67
S'/Applications/Arduino.app/Contents/Resources/Java/lib/version.txt'
p68
tp69
a(S'used_libs'
p70
(lp71
S'lib/GCS_MAVLink'
p72
aS'lib/AP_Math'
p73
aS'lib/FastSerial'
p74
aS'lib/AP_Common'
p75
aS'/Applications/Arduino.app/Contents/Resources/Java/hardware/arduino/cores/arduino'
p76
atp77
a(S'cc'
p78
S'/Applications/Arduino.app/Contents/Resources/Java/hardware/tools/avr/bin/avr-gcc'
p79
tp80
a(S'make'
p81
S'/Applications/Arduino.app/Contents/Resources/Java/hardware/tools/avr/bin/make'
p82
tp83
a(S'cflags'
p84
g2
(g3
g4
(lp85
tp86
Rp87
tp88
a(S'build_dir'
p89
S'.build/uno'
p90
tp91
a(S'arduino_core_dir'
p92
g76
tp93
a(S'boards.txt'
p94
S'/Applications/Arduino.app/Contents/Resources/Java/hardware/arduino/boards.txt'
p95
tp96
a(S'cxxflags'
p97
g2
(g3
g4
(lp98
S'-fno-exceptions'
p99
atp100
Rp101
tp102
a(S'arduino_variants_dir'
p103
S'/Applications/Arduino.app/Contents/Resources/Java/hardware/arduino/variants'
p104
tp105
a(S'ar'
p106
S'/Applications/Arduino.app/Contents/Resources/Java/hardware/tools/avr/bin/avr-ar'
p107
tp108
a(S'names'
p109
(dp110
S'cpp'
p111
S'%s.cpp'
p112
sS'obj'
p113
S'%s.o'
p114
sS'deps'
p115
S'%s.d'
p116
sS'lib'
p117
S'lib%s.a'
p118
stp119
a(S'deps'
p120
g2
(g3
g4
(lp121
S'.build/uno/src/dependencies.d'
p122
aS'.build/uno/arduino/dependencies.d'
p123
aS'.build/uno/FastSerial/dependencies.d'
p124
aS'.build/uno/AP_Common/dependencies.d'
p125
aS'.build/uno/GCS_MAVLink/dependencies.d'
p126
aS'.build/uno/AP_Math/dependencies.d'
p127
atp128
Rp129
tp130
a(S'arduino_libraries_dir'
p131
S'/Applications/Arduino.app/Contents/Resources/Java/libraries'
p132
tp133
a(S'arduino_lib_version'
p134
g2
(cino.environment
Version
p135
c__builtin__
tuple
p136
(I1
I0
I6
tp137
tp138
Rp139
tp140
a(S'objcopy'
p141
S'/Applications/Arduino.app/Contents/Resources/Java/hardware/tools/avr/bin/avr-objcopy'
p142
tp143
a(S'board_models'
p144
cino.environment
BoardModels
p145
((lp146
(lp147
S'uno'
p148
a(dp149
S'bootloader'
p150
(dp151
S'extended_fuses'
p152
S'0x05'
p153
sS'high_fuses'
p154
S'0xde'
p155
sS'low_fuses'
p156
S'0xff'
p157
sS'lock_bits'
p158
S'0x0F'
p159
sS'file'
p160
S'optiboot_atmega328.hex'
p161
sS'path'
p162
S'optiboot'
p163
sS'unlock_bits'
p164
S'0x3F'
p165
ssS'upload'
p166
(dp167
S'protocol'
p168
S'arduino'
p169
sS'maximum_size'
p170
S'32256'
p171
sS'speed'
p172
S'115200'
p173
ssS'build'
p174
(dp175
S'core'
p176
S'arduino'
p177
sS'mcu'
p178
S'atmega328p'
p179
sS'f_cpu'
p180
S'16000000L'
p181
sS'variant'
p182
S'standard'
p183
ssS'name'
p184
S'Arduino Uno'
p185
saa(lp186
S'atmega328'
p187
a(dp188
S'bootloader'
p189
(dp190
S'extended_fuses'
p191
S'0x05'
p192
sS'high_fuses'
p193
S'0xDA'
p194
sS'low_fuses'
p195
S'0xFF'
p196
sS'lock_bits'
p197
S'0x0F'
p198
sS'file'
p199
S'ATmegaBOOT_168_atmega328.hex'
p200
sS'path'
p201
S'atmega'
p202
sS'unlock_bits'
p203
S'0x3F'
p204
ssS'upload'
p205
(dp206
S'protocol'
p207
S'arduino'
p208
sS'maximum_size'
p209
S'30720'
p210
sS'speed'
p211
S'57600'
p212
ssS'build'
p213
(dp214
S'core'
p215
S'arduino'
p216
sS'mcu'
p217
S'atmega328p'
p218
sS'f_cpu'
p219
S'16000000L'
p220
sS'variant'
p221
S'standard'
p222
ssS'name'
p223
S'Arduino Duemilanove w/ ATmega328'
p224
saa(lp225
S'diecimila'
p226
a(dp227
S'bootloader'
p228
(dp229
S'extended_fuses'
p230
S'0x00'
p231
sS'high_fuses'
p232
S'0xdd'
p233
sS'low_fuses'
p234
S'0xff'
p235
sS'lock_bits'
p236
S'0x0F'
p237
sS'file'
p238
S'ATmegaBOOT_168_diecimila.hex'
p239
sS'path'
p240
S'atmega'
p241
sS'unlock_bits'
p242
S'0x3F'
p243
ssS'upload'
p244
(dp245
S'protocol'
p246
S'arduino'
p247
sS'maximum_size'
p248
S'14336'
p249
sS'speed'
p250
S'19200'
p251
ssS'build'
p252
(dp253
S'core'
p254
S'arduino'
p255
sS'mcu'
p256
S'atmega168'
p257
sS'f_cpu'
p258
S'16000000L'
p259
sS'variant'
p260
S'standard'
p261
ssS'name'
p262
S'Arduino Diecimila or Duemilanove w/ ATmega168'
p263
saa(lp264
S'nano328'
p265
a(dp266
S'bootloader'
p267
(dp268
S'extended_fuses'
p269
S'0x05'
p270
sS'high_fuses'
p271
S'0xDA'
p272
sS'low_fuses'
p273
S'0xFF'
p274
sS'lock_bits'
p275
S'0x0F'
p276
sS'file'
p277
S'ATmegaBOOT_168_atmega328.hex'
p278
sS'path'
p279
S'atmega'
p280
sS'unlock_bits'
p281
S'0x3F'
p282
ssS'upload'
p283
(dp284
S'protocol'
p285
S'arduino'
p286
sS'maximum_size'
p287
S'30720'
p288
sS'speed'
p289
S'57600'
p290
ssS'build'
p291
(dp292
S'core'
p293
S'arduino'
p294
sS'mcu'
p295
S'atmega328p'
p296
sS'f_cpu'
p297
S'16000000L'
p298
sS'variant'
p299
S'eightanaloginputs'
p300
ssS'name'
p301
S'Arduino Nano w/ ATmega328'
p302
saa(lp303
S'nano'
p304
a(dp305
S'bootloader'
p306
(dp307
S'extended_fuses'
p308
S'0x00'
p309
sS'high_fuses'
p310
S'0xdd'
p311
sS'low_fuses'
p312
S'0xff'
p313
sS'lock_bits'
p314
S'0x0F'
p315
sS'file'
p316
S'ATmegaBOOT_168_diecimila.hex'
p317
sS'path'
p318
S'atmega'
p319
sS'unlock_bits'
p320
S'0x3F'
p321
ssS'upload'
p322
(dp323
S'protocol'
p324
S'arduino'
p325
sS'maximum_size'
p326
S'14336'
p327
sS'speed'
p328
S'19200'
p329
ssS'build'
p330
(dp331
S'core'
p332
S'arduino'
p333
sS'mcu'
p334
S'atmega168'
p335
sS'f_cpu'
p336
S'16000000L'
p337
sS'variant'
p338
S'eightanaloginputs'
p339
ssS'name'
p340
S'Arduino Nano w/ ATmega168'
p341
saa(lp342
S'mega2560'
p343
a(dp344
S'bootloader'
p345
(dp346
S'extended_fuses'
p347
S'0xFD'
p348
sS'high_fuses'
p349
S'0xD8'
p350
sS'low_fuses'
p351
S'0xFF'
p352
sS'lock_bits'
p353
S'0x0F'
p354
sS'file'
p355
S'stk500boot_v2_mega2560.hex'
p356
sS'path'
p357
S'stk500v2'
p358
sS'unlock_bits'
p359
S'0x3F'
p360
ssS'upload'
p361
(dp362
S'protocol'
p363
S'wiring'
p364
sS'maximum_size'
p365
S'258048'
p366
sS'speed'
p367
S'115200'
p368
ssS'build'
p369
(dp370
S'core'
p371
S'arduino'
p372
sS'mcu'
p373
S'atmega2560'
p374
sS'f_cpu'
p375
S'16000000L'
p376
sS'variant'
p377
S'mega'
p378
ssS'name'
p379
S'Arduino Mega 2560 or Mega ADK'
p380
saa(lp381
S'mega'
p382
a(dp383
S'bootloader'
p384
(dp385
S'extended_fuses'
p386
S'0xF5'
p387
sS'high_fuses'
p388
S'0xDA'
p389
sS'low_fuses'
p390
S'0xFF'
p391
sS'lock_bits'
p392
S'0x0F'
p393
sS'file'
p394
S'ATmegaBOOT_168_atmega1280.hex'
p395
sS'path'
p396
S'atmega'
p397
sS'unlock_bits'
p398
S'0x3F'
p399
ssS'upload'
p400
(dp401
S'protocol'
p402
S'arduino'
p403
sS'maximum_size'
p404
S'126976'
p405
sS'speed'
p406
S'57600'
p407
ssS'build'
p408
(dp409
S'core'
p410
S'arduino'
p411
sS'mcu'
p412
S'atmega1280'
p413
sS'f_cpu'
p414
S'16000000L'
p415
sS'variant'
p416
S'mega'
p417
ssS'name'
p418
S'Arduino Mega (ATmega1280)'
p419
saa(lp420
S'leonardo'
p421
a(dp422
S'bootloader'
p423
(dp424
S'extended_fuses'
p425
S'0xcb'
p426
sS'high_fuses'
p427
S'0xd8'
p428
sS'low_fuses'
p429
S'0xff'
p430
sS'lock_bits'
p431
S'0x2F'
p432
sS'file'
p433
S'Caterina-Leonardo.hex'
p434
sS'path'
p435
S'caterina'
p436
sS'unlock_bits'
p437
S'0x3F'
p438
ssS'upload'
p439
(dp440
S'protocol'
p441
S'avr109'
p442
sS'maximum_size'
p443
S'28672'
p444
sS'speed'
p445
S'57600'
p446
sS'disable_flushing'
p447
S'true'
p448
ssS'build'
p449
(dp450
S'core'
p451
S'arduino'
p452
sS'f_cpu'
p453
S'16000000L'
p454
sS'vid'
p455
S'0x2341'
p456
sS'pid'
p457
S'0x8036'
p458
sS'variant'
p459
S'leonardo'
p460
sS'mcu'
p461
S'atmega32u4'
p462
ssS'name'
p463
S'Arduino Leonardo'
p464
saa(lp465
S'esplora'
p466
a(dp467
S'bootloader'
p468
(dp469
S'extended_fuses'
p470
S'0xcb'
p471
sS'high_fuses'
p472
S'0xd8'
p473
sS'low_fuses'
p474
S'0xff'
p475
sS'lock_bits'
p476
S'0x2F'
p477
sS'file'
p478
S'Caterina-Esplora.hex'
p479
sS'path'
p480
S'caterina'
p481
sS'unlock_bits'
p482
S'0x3F'
p483
ssS'upload'
p484
(dp485
S'protocol'
p486
S'avr109'
p487
sS'maximum_size'
p488
S'28672'
p489
sS'speed'
p490
S'57600'
p491
sS'disable_flushing'
p492
S'true'
p493
ssS'build'
p494
(dp495
S'core'
p496
S'arduino'
p497
sS'f_cpu'
p498
S'16000000L'
p499
sS'vid'
p500
S'0x2341'
p501
sS'pid'
p502
S'0x803C'
p503
sS'variant'
p504
S'leonardo'
p505
sS'mcu'
p506
S'atmega32u4'
p507
ssS'name'
p508
S'Arduino Esplora'
p509
saa(lp510
S'micro'
p511
a(dp512
S'bootloader'
p513
(dp514
S'extended_fuses'
p515
S'0xcb'
p516
sS'high_fuses'
p517
S'0xd8'
p518
sS'low_fuses'
p519
S'0xff'
p520
sS'lock_bits'
p521
S'0x2F'
p522
sS'file'
p523
S'Caterina-Micro.hex'
p524
sS'path'
p525
S'caterina'
p526
sS'unlock_bits'
p527
S'0x3F'
p528
ssS'upload'
p529
(dp530
S'protocol'
p531
S'avr109'
p532
sS'maximum_size'
p533
S'28672'
p534
sS'speed'
p535
S'57600'
p536
sS'disable_flushing'
p537
S'true'
p538
ssS'build'
p539
(dp540
S'core'
p541
S'arduino'
p542
sS'f_cpu'
p543
S'16000000L'
p544
sS'vid'
p545
S'0x2341'
p546
sS'pid'
p547
S'0x8037'
p548
sS'variant'
p549
S'micro'
p550
sS'mcu'
p551
S'atmega32u4'
p552
ssS'name'
p553
S'Arduino Micro'
p554
saa(lp555
S'mini328'
p556
a(dp557
S'bootloader'
p558
(dp559
S'extended_fuses'
p560
S'0x05'
p561
sS'high_fuses'
p562
S'0xd8'
p563
sS'low_fuses'
p564
S'0xff'
p565
sS'lock_bits'
p566
S'0x0F'
p567
sS'file'
p568
S'optiboot_atmega328-Mini.hex'
p569
sS'path'
p570
S'optiboot'
p571
sS'unlock_bits'
p572
S'0x3F'
p573
ssS'upload'
p574
(dp575
S'protocol'
p576
S'arduino'
p577
sS'maximum_size'
p578
S'28672'
p579
sS'speed'
p580
S'115200'
p581
ssS'build'
p582
(dp583
S'core'
p584
S'arduino'
p585
sS'mcu'
p586
S'atmega328p'
p587
sS'f_cpu'
p588
S'16000000L'
p589
sS'variant'
p590
S'eightanaloginputs'
p591
ssS'name'
p592
S'Arduino Mini w/ ATmega328'
p593
saa(lp594
S'mini'
p595
a(dp596
S'bootloader'
p597
(dp598
S'extended_fuses'
p599
S'0x00'
p600
sS'high_fuses'
p601
S'0xdd'
p602
sS'low_fuses'
p603
S'0xff'
p604
sS'lock_bits'
p605
S'0x0F'
p606
sS'file'
p607
S'ATmegaBOOT_168_ng.hex'
p608
sS'path'
p609
S'atmega'
p610
sS'unlock_bits'
p611
S'0x3F'
p612
ssS'upload'
p613
(dp614
S'protocol'
p615
S'arduino'
p616
sS'maximum_size'
p617
S'14336'
p618
sS'speed'
p619
S'19200'
p620
ssS'build'
p621
(dp622
S'core'
p623
S'arduino'
p624
sS'mcu'
p625
S'atmega168'
p626
sS'f_cpu'
p627
S'16000000L'
p628
sS'variant'
p629
S'eightanaloginputs'
p630
ssS'name'
p631
S'Arduino Mini w/ ATmega168'
p632
saa(lp633
S'ethernet'
p634
a(dp635
S'bootloader'
p636
(dp637
S'extended_fuses'
p638
S'0x05'
p639
sS'high_fuses'
p640
S'0xde'
p641
sS'low_fuses'
p642
S'0xff'
p643
sS'lock_bits'
p644
S'0x0F'
p645
sS'file'
p646
S'optiboot_atmega328.hex'
p647
sS'path'
p648
S'optiboot'
p649
sS'unlock_bits'
p650
S'0x3F'
p651
ssS'upload'
p652
(dp653
S'protocol'
p654
S'arduino'
p655
sS'maximum_size'
p656
S'32256'
p657
sS'speed'
p658
S'115200'
p659
ssS'build'
p660
(dp661
S'variant'
p662
S'ethernet'
p663
sS'mcu'
p664
S'atmega328p'
p665
sS'f_cpu'
p666
S'16000000L'
p667
sS'core'
p668
S'arduino'
p669
ssS'name'
p670
S'Arduino Ethernet'
p671
saa(lp672
S'fio'
p673
a(dp674
S'bootloader'
p675
(dp676
S'extended_fuses'
p677
S'0x05'
p678
sS'high_fuses'
p679
S'0xDA'
p680
sS'low_fuses'
p681
S'0xFF'
p682
sS'lock_bits'
p683
S'0x0F'
p684
sS'file'
p685
S'ATmegaBOOT_168_atmega328_pro_8MHz.hex'
p686
sS'path'
p687
S'arduino:atmega'
p688
sS'unlock_bits'
p689
S'0x3F'
p690
ssS'upload'
p691
(dp692
S'protocol'
p693
S'arduino'
p694
sS'maximum_size'
p695
S'30720'
p696
sS'speed'
p697
S'57600'
p698
ssS'build'
p699
(dp700
S'core'
p701
S'arduino'
p702
sS'mcu'
p703
S'atmega328p'
p704
sS'f_cpu'
p705
S'8000000L'
p706
sS'variant'
p707
S'eightanaloginputs'
p708
ssS'name'
p709
S'Arduino Fio'
p710
saa(lp711
S'bt328'
p712
a(dp713
S'bootloader'
p714
(dp715
S'extended_fuses'
p716
S'0x05'
p717
sS'high_fuses'
p718
S'0xd8'
p719
sS'low_fuses'
p720
S'0xff'
p721
sS'lock_bits'
p722
S'0x0F'
p723
sS'file'
p724
S'ATmegaBOOT_168_atmega328_bt.hex'
p725
sS'path'
p726
S'bt'
p727
sS'unlock_bits'
p728
S'0x3F'
p729
ssS'upload'
p730
(dp731
S'protocol'
p732
S'arduino'
p733
sS'maximum_size'
p734
S'28672'
p735
sS'speed'
p736
S'19200'
p737
sS'disable_flushing'
p738
S'true'
p739
ssS'build'
p740
(dp741
S'core'
p742
S'arduino'
p743
sS'mcu'
p744
S'atmega328p'
p745
sS'f_cpu'
p746
S'16000000L'
p747
sS'variant'
p748
S'eightanaloginputs'
p749
ssS'name'
p750
S'Arduino BT w/ ATmega328'
p751
saa(lp752
S'bt'
p753
a(dp754
S'bootloader'
p755
(dp756
S'extended_fuses'
p757
S'0x00'
p758
sS'high_fuses'
p759
S'0xdd'
p760
sS'low_fuses'
p761
S'0xff'
p762
sS'lock_bits'
p763
S'0x0F'
p764
sS'file'
p765
S'ATmegaBOOT_168.hex'
p766
sS'path'
p767
S'bt'
p768
sS'unlock_bits'
p769
S'0x3F'
p770
ssS'upload'
p771
(dp772
S'protocol'
p773
S'arduino'
p774
sS'maximum_size'
p775
S'14336'
p776
sS'speed'
p777
S'19200'
p778
sS'disable_flushing'
p779
S'true'
p780
ssS'build'
p781
(dp782
S'core'
p783
S'arduino'
p784
sS'mcu'
p785
S'atmega168'
p786
sS'f_cpu'
p787
S'16000000L'
p788
sS'variant'
p789
S'eightanaloginputs'
p790
ssS'name'
p791
S'Arduino BT w/ ATmega168'
p792
saa(lp793
S'LilyPadUSB'
p794
a(dp795
S'bootloader'
p796
(dp797
S'extended_fuses'
p798
S'0xce'
p799
sS'high_fuses'
p800
S'0xd8'
p801
sS'low_fuses'
p802
S'0xff'
p803
sS'lock_bits'
p804
S'0x2F'
p805
sS'file'
p806
S'Caterina-LilyPadUSB.hex'
p807
sS'path'
p808
S'caterina-LilyPadUSB'
p809
sS'unlock_bits'
p810
S'0x3F'
p811
ssS'upload'
p812
(dp813
S'protocol'
p814
S'avr109'
p815
sS'maximum_size'
p816
S'28672'
p817
sS'speed'
p818
S'57600'
p819
sS'disable_flushing'
p820
S'true'
p821
ssS'build'
p822
(dp823
S'core'
p824
S'arduino'
p825
sS'f_cpu'
p826
S'8000000L'
p827
sS'vid'
p828
S'0x1B4F'
p829
sS'pid'
p830
S'0x9208'
p831
sS'variant'
p832
S'leonardo'
p833
sS'mcu'
p834
S'atmega32u4'
p835
ssS'name'
p836
S'LilyPad Arduino USB'
p837
saa(lp838
S'lilypad328'
p839
a(dp840
S'bootloader'
p841
(dp842
S'extended_fuses'
p843
S'0x05'
p844
sS'high_fuses'
p845
S'0xDA'
p846
sS'low_fuses'
p847
S'0xFF'
p848
sS'lock_bits'
p849
S'0x0F'
p850
sS'file'
p851
S'ATmegaBOOT_168_atmega328_pro_8MHz.hex'
p852
sS'path'
p853
S'atmega'
p854
sS'unlock_bits'
p855
S'0x3F'
p856
ssS'upload'
p857
(dp858
S'protocol'
p859
S'arduino'
p860
sS'maximum_size'
p861
S'30720'
p862
sS'speed'
p863
S'57600'
p864
ssS'build'
p865
(dp866
S'core'
p867
S'arduino'
p868
sS'mcu'
p869
S'atmega328p'
p870
sS'f_cpu'
p871
S'8000000L'
p872
sS'variant'
p873
S'standard'
p874
ssS'name'
p875
S'LilyPad Arduino w/ ATmega328'
p876
saa(lp877
S'lilypad'
p878
a(dp879
S'bootloader'
p880
(dp881
S'extended_fuses'
p882
S'0x00'
p883
sS'high_fuses'
p884
S'0xdd'
p885
sS'low_fuses'
p886
S'0xe2'
p887
sS'lock_bits'
p888
S'0x0F'
p889
sS'file'
p890
S'LilyPadBOOT_168.hex'
p891
sS'path'
p892
S'lilypad'
p893
sS'unlock_bits'
p894
S'0x3F'
p895
ssS'upload'
p896
(dp897
S'protocol'
p898
S'arduino'
p899
sS'maximum_size'
p900
S'14336'
p901
sS'speed'
p902
S'19200'
p903
ssS'build'
p904
(dp905
S'core'
p906
S'arduino'
p907
sS'mcu'
p908
S'atmega168'
p909
sS'f_cpu'
p910
S'8000000L'
p911
sS'variant'
p912
S'standard'
p913
ssS'name'
p914
S'LilyPad Arduino w/ ATmega168'
p915
saa(lp916
S'pro5v328'
p917
a(dp918
S'bootloader'
p919
(dp920
S'extended_fuses'
p921
S'0x05'
p922
sS'high_fuses'
p923
S'0xDA'
p924
sS'low_fuses'
p925
S'0xFF'
p926
sS'lock_bits'
p927
S'0x0F'
p928
sS'file'
p929
S'ATmegaBOOT_168_atmega328.hex'
p930
sS'path'
p931
S'atmega'
p932
sS'unlock_bits'
p933
S'0x3F'
p934
ssS'upload'
p935
(dp936
S'protocol'
p937
S'arduino'
p938
sS'maximum_size'
p939
S'30720'
p940
sS'speed'
p941
S'57600'
p942
ssS'build'
p943
(dp944
S'core'
p945
S'arduino'
p946
sS'mcu'
p947
S'atmega328p'
p948
sS'f_cpu'
p949
S'16000000L'
p950
sS'variant'
p951
S'standard'
p952
ssS'name'
p953
S'Arduino Pro or Pro Mini (5V, 16 MHz) w/ ATmega328'
p954
saa(lp955
S'pro5v'
p956
a(dp957
S'bootloader'
p958
(dp959
S'extended_fuses'
p960
S'0x00'
p961
sS'high_fuses'
p962
S'0xdd'
p963
sS'low_fuses'
p964
S'0xff'
p965
sS'lock_bits'
p966
S'0x0F'
p967
sS'file'
p968
S'ATmegaBOOT_168_diecimila.hex'
p969
sS'path'
p970
S'atmega'
p971
sS'unlock_bits'
p972
S'0x3F'
p973
ssS'upload'
p974
(dp975
S'protocol'
p976
S'arduino'
p977
sS'maximum_size'
p978
S'14336'
p979
sS'speed'
p980
S'19200'
p981
ssS'build'
p982
(dp983
S'core'
p984
S'arduino'
p985
sS'mcu'
p986
S'atmega168'
p987
sS'f_cpu'
p988
S'16000000L'
p989
sS'variant'
p990
S'standard'
p991
ssS'name'
p992
S'Arduino Pro or Pro Mini (5V, 16 MHz) w/ ATmega168'
p993
saa(lp994
S'pro328'
p995
a(dp996
S'bootloader'
p997
(dp998
S'extended_fuses'
p999
S'0x05'
p1000
sS'high_fuses'
p1001
S'0xDA'
p1002
sS'low_fuses'
p1003
S'0xFF'
p1004
sS'lock_bits'
p1005
S'0x0F'
p1006
sS'file'
p1007
S'ATmegaBOOT_168_atmega328_pro_8MHz.hex'
p1008
sS'path'
p1009
S'atmega'
p1010
sS'unlock_bits'
p1011
S'0x3F'
p1012
ssS'upload'
p1013
(dp1014
S'protocol'
p1015
S'arduino'
p1016
sS'maximum_size'
p1017
S'30720'
p1018
sS'speed'
p1019
S'57600'
p1020
ssS'build'
p1021
(dp1022
S'core'
p1023
S'arduino'
p1024
sS'mcu'
p1025
S'atmega328p'
p1026
sS'f_cpu'
p1027
S'8000000L'
p1028
sS'variant'
p1029
S'standard'
p1030
ssS'name'
p1031
S'Arduino Pro or Pro Mini (3.3V, 8 MHz) w/ ATmega328'
p1032
saa(lp1033
S'pro'
p1034
a(dp1035
S'bootloader'
p1036
(dp1037
S'extended_fuses'
p1038
S'0x00'
p1039
sS'high_fuses'
p1040
S'0xdd'
p1041
sS'low_fuses'
p1042
S'0xc6'
p1043
sS'lock_bits'
p1044
S'0x0F'
p1045
sS'file'
p1046
S'ATmegaBOOT_168_pro_8MHz.hex'
p1047
sS'path'
p1048
S'atmega'
p1049
sS'unlock_bits'
p1050
S'0x3F'
p1051
ssS'upload'
p1052
(dp1053
S'protocol'
p1054
S'arduino'
p1055
sS'maximum_size'
p1056
S'14336'
p1057
sS'speed'
p1058
S'19200'
p1059
ssS'build'
p1060
(dp1061
S'core'
p1062
S'arduino'
p1063
sS'mcu'
p1064
S'atmega168'
p1065
sS'f_cpu'
p1066
S'8000000L'
p1067
sS'variant'
p1068
S'standard'
p1069
ssS'name'
p1070
S'Arduino Pro or Pro Mini (3.3V, 8 MHz) w/ ATmega168'
p1071
saa(lp1072
S'atmega168'
p1073
a(dp1074
S'bootloader'
p1075
(dp1076
S'extended_fuses'
p1077
S'0x00'
p1078
sS'high_fuses'
p1079
S'0xdd'
p1080
sS'low_fuses'
p1081
S'0xff'
p1082
sS'lock_bits'
p1083
S'0x0F'
p1084
sS'file'
p1085
S'ATmegaBOOT_168_ng.hex'
p1086
sS'path'
p1087
S'atmega'
p1088
sS'unlock_bits'
p1089
S'0x3F'
p1090
ssS'upload'
p1091
(dp1092
S'protocol'
p1093
S'arduino'
p1094
sS'maximum_size'
p1095
S'14336'
p1096
sS'speed'
p1097
S'19200'
p1098
ssS'build'
p1099
(dp1100
S'core'
p1101
S'arduino'
p1102
sS'mcu'
p1103
S'atmega168'
p1104
sS'f_cpu'
p1105
S'16000000L'
p1106
sS'variant'
p1107
S'standard'
p1108
ssS'name'
p1109
S'Arduino NG or older w/ ATmega168'
p1110
saa(lp1111
S'atmega8'
p1112
a(dp1113
S'bootloader'
p1114
(dp1115
S'high_fuses'
p1116
S'0xca'
p1117
sS'low_fuses'
p1118
S'0xdf'
p1119
sS'lock_bits'
p1120
S'0x0F'
p1121
sS'file'
p1122
S'ATmegaBOOT-prod-firmware-2009-11-07.hex'
p1123
sS'path'
p1124
S'atmega8'
p1125
sS'unlock_bits'
p1126
S'0x3F'
p1127
ssS'upload'
p1128
(dp1129
S'protocol'
p1130
S'arduino'
p1131
sS'maximum_size'
p1132
S'7168'
p1133
sS'speed'
p1134
S'19200'
p1135
ssS'build'
p1136
(dp1137
S'core'
p1138
S'arduino'
p1139
sS'mcu'
p1140
S'atmega8'
p1141
sS'f_cpu'
p1142
S'16000000L'
p1143
sS'variant'
p1144
S'standard'
p1145
ssS'name'
p1146
S'Arduino NG or older w/ ATmega8'
p1147
saa(lp1148
S'robotControl'
p1149
a(dp1150
S'bootloader'
p1151
(dp1152
S'extended_fuses'
p1153
S'0xcb'
p1154
sS'high_fuses'
p1155
S'0xd8'
p1156
sS'low_fuses'
p1157
S'0xff'
p1158
sS'lock_bits'
p1159
S'0x2F'
p1160
sS'file'
p1161
S'Caterina-Robot-Control.hex'
p1162
sS'path'
p1163
S'caterina-Arduino_Robot'
p1164
sS'unlock_bits'
p1165
S'0x3F'
p1166
ssS'upload'
p1167
(dp1168
S'protocol'
p1169
S'avr109'
p1170
sS'maximum_size'
p1171
S'28672'
p1172
sS'speed'
p1173
S'57600'
p1174
sS'disable_flushing'
p1175
S'true'
p1176
ssS'build'
p1177
(dp1178
S'core'
p1179
S'robot'
p1180
sS'f_cpu'
p1181
S'16000000L'
p1182
sS'vid'
p1183
S'0x2341'
p1184
sS'pid'
p1185
S'0x8038'
p1186
sS'variant'
p1187
S'robot_control'
p1188
sS'mcu'
p1189
S'atmega32u4'
p1190
ssS'name'
p1191
S'Arduino Robot Control'
p1192
saa(lp1193
S'robotMotor'
p1194
a(dp1195
S'bootloader'
p1196
(dp1197
S'extended_fuses'
p1198
S'0xcb'
p1199
sS'high_fuses'
p1200
S'0xd8'
p1201
sS'low_fuses'
p1202
S'0xff'
p1203
sS'lock_bits'
p1204
S'0x2F'
p1205
sS'file'
p1206
S'Caterina-Robot-Motor.hex'
p1207
sS'path'
p1208
S'caterina-Arduino_Robot'
p1209
sS'unlock_bits'
p1210
S'0x3F'
p1211
ssS'upload'
p1212
(dp1213
S'protocol'
p1214
S'avr109'
p1215
sS'maximum_size'
p1216
S'28672'
p1217
sS'speed'
p1218
S'57600'
p1219
sS'disable_flushing'
p1220
S'true'
p1221
ssS'build'
p1222
(dp1223
S'core'
p1224
S'robot'
p1225
sS'f_cpu'
p1226
S'16000000L'
p1227
sS'vid'
p1228
S'0x2341'
p1229
sS'pid'
p1230
S'0x8039'
p1231
sS'variant'
p1232
S'robot_motor'
p1233
sS'mcu'
p1234
S'atmega32u4'
p1235
ssS'name'
p1236
S'Arduino Robot Motor'
p1237
saatp1238
Rp1239
(dp1240
S'default'
p1241
S'uno'
p1242
sbtp1243
a(S'ldflags'
p1244
g2
(g3
g4
(lp1245
g6
aS'-Wl,-Os'
p1246
aS'-Wl,--gc-sections'
p1247
atp1248
Rp1249
tp1250
a.